target datalayout = "e-m:e-p270:32:32-p271:32:32-p272:64:64-i64:64-i128:128-f80:128-n8:16:32:64-S128"
target triple = "x86_64-pc-linux-gnu"

%struct.nghttp2_frame_hd = type { i64, i32, i8, i8, i8 }
%struct.nghttp2_push_promise = type { %struct.nghttp2_frame_hd, i64, ptr, i64, i32, i8 }
%struct.nghttp2_bufs = type { ptr, ptr, ptr, i64, i64, i64, i64, i64 }
%struct.nghttp2_buf_chain = type { ptr, %struct.nghttp2_buf }
%struct.nghttp2_buf = type { ptr, ptr, ptr, ptr, ptr }

@.str = private unnamed_addr constant [24 x i8] c"bufs->head == bufs->cur\00", align 1
@.str.1 = private unnamed_addr constant [113 x i8] c"generated/home/dtcxzyw/WorkSpace/Projects/compilers/llvm-opt-benchmark/bench/nghttp2/nghttp2/lib/nghttp2_frame.c\00", align 1
@__PRETTY_FUNCTION__.nghttp2_frame_pack_push_promise = private unnamed_addr constant [99 x i8] c"int nghttp2_frame_pack_push_promise(nghttp2_bufs *, nghttp2_push_promise *, nghttp2_hd_deflater *)\00", align 1

; Function Attrs: nounwind uwtable
define hidden i32 @nghttp2_frame_pack_push_promise(ptr noundef %0, ptr noundef %1, ptr noundef %2) #0 {
  %4 = alloca i32, align 4
  %5 = alloca ptr, align 8
  %6 = alloca ptr, align 8
  %7 = alloca ptr, align 8
  %8 = alloca i64, align 8
  %9 = alloca i32, align 4
  %10 = alloca ptr, align 8
  %11 = alloca i32, align 4
  store ptr %0, ptr %5, align 8, !tbaa !8
  store ptr %1, ptr %6, align 8, !tbaa !8
  store ptr %2, ptr %7, align 8, !tbaa !68
  call void @llvm.lifetime.start.p0(i64 8, ptr %8) #7
  store i64 4, ptr %8, align 8, !tbaa !18
  call void @llvm.lifetime.start.p0(i64 4, ptr %9) #7
  call void @llvm.lifetime.start.p0(i64 8, ptr %10) #7
  %12 = load ptr, ptr %5, align 8, !tbaa !8
  %13 = getelementptr inbounds nuw %struct.nghttp2_bufs, ptr %12, i32 0, i32 0
  %14 = load ptr, ptr %13, align 8, !tbaa !70
  %15 = load ptr, ptr %5, align 8, !tbaa !8
  %16 = getelementptr inbounds nuw %struct.nghttp2_bufs, ptr %15, i32 0, i32 1
  %17 = load ptr, ptr %16, align 8, !tbaa !73
  %18 = icmp eq ptr %14, %17
  br i1 %18, label %19, label %20

19:                                               ; preds = %3
  br label %21

20:                                               ; preds = %3
  call void @__assert_fail(ptr noundef @.str, ptr noundef @.str.1, i32 noundef 561, ptr noundef @__PRETTY_FUNCTION__.nghttp2_frame_pack_push_promise) #8
  unreachable

21:                                               ; preds = %19
  %22 = load ptr, ptr %5, align 8, !tbaa !8
  %23 = getelementptr inbounds nuw %struct.nghttp2_bufs, ptr %22, i32 0, i32 1
  %24 = load ptr, ptr %23, align 8, !tbaa !73
  %25 = getelementptr inbounds nuw %struct.nghttp2_buf_chain, ptr %24, i32 0, i32 1
  store ptr %25, ptr %10, align 8, !tbaa !8
  %26 = load i64, ptr %8, align 8, !tbaa !18
  %27 = load ptr, ptr %10, align 8, !tbaa !8
  %28 = getelementptr inbounds nuw %struct.nghttp2_buf, ptr %27, i32 0, i32 2
  %29 = load ptr, ptr %28, align 8, !tbaa !74
  %30 = getelementptr inbounds nuw i8, ptr %29, i64 %26
  store ptr %30, ptr %28, align 8, !tbaa !74
  %31 = load ptr, ptr %10, align 8, !tbaa !8
  %32 = getelementptr inbounds nuw %struct.nghttp2_buf, ptr %31, i32 0, i32 2
  %33 = load ptr, ptr %32, align 8, !tbaa !74
  %34 = load ptr, ptr %10, align 8, !tbaa !8
  %35 = getelementptr inbounds nuw %struct.nghttp2_buf, ptr %34, i32 0, i32 3
  store ptr %33, ptr %35, align 8, !tbaa !76
  %36 = load ptr, ptr %7, align 8, !tbaa !68
  %37 = load ptr, ptr %5, align 8, !tbaa !8
  %38 = load ptr, ptr %6, align 8, !tbaa !8
  %39 = getelementptr inbounds nuw %struct.nghttp2_push_promise, ptr %38, i32 0, i32 2
  %40 = load ptr, ptr %39, align 8, !tbaa !34
  %41 = load ptr, ptr %6, align 8, !tbaa !8
  %42 = getelementptr inbounds nuw %struct.nghttp2_push_promise, ptr %41, i32 0, i32 3
  %43 = load i64, ptr %42, align 8, !tbaa !35
  %44 = call i32 @nghttp2_hd_deflate_hd_bufs(ptr noundef %36, ptr noundef %37, ptr noundef %40, i64 noundef %43)
  store i32 %44, ptr %9, align 4, !tbaa !19
  %45 = load i32, ptr %9, align 4, !tbaa !19
  %46 = icmp eq i32 %45, -502
  br i1 %46, label %47, label %48

47:                                               ; preds = %21
  store i32 -523, ptr %9, align 4, !tbaa !19
  br label %48

48:                                               ; preds = %47, %21
  %49 = load i64, ptr %8, align 8, !tbaa !18
  %50 = load ptr, ptr %10, align 8, !tbaa !8
  %51 = getelementptr inbounds nuw %struct.nghttp2_buf, ptr %50, i32 0, i32 2
  %52 = load ptr, ptr %51, align 8, !tbaa !74
  %53 = sub i64 0, %49
  %54 = getelementptr inbounds i8, ptr %52, i64 %53
  store ptr %54, ptr %51, align 8, !tbaa !74
  %55 = load i32, ptr %9, align 4, !tbaa !19
  %56 = icmp ne i32 %55, 0
  br i1 %56, label %57, label %59

57:                                               ; preds = %48
  %58 = load i32, ptr %9, align 4, !tbaa !19
  store i32 %58, ptr %4, align 4
  store i32 1, ptr %11, align 4
  br label %77

59:                                               ; preds = %48
  %60 = load ptr, ptr %10, align 8, !tbaa !8
  %61 = getelementptr inbounds nuw %struct.nghttp2_buf, ptr %60, i32 0, i32 2
  %62 = load ptr, ptr %61, align 8, !tbaa !74
  %63 = load ptr, ptr %6, align 8, !tbaa !8
  %64 = getelementptr inbounds nuw %struct.nghttp2_push_promise, ptr %63, i32 0, i32 4
  %65 = load i32, ptr %64, align 8, !tbaa !36
  call void @nghttp2_put_uint32be(ptr noundef %62, i32 noundef %65)
  %66 = load ptr, ptr %6, align 8, !tbaa !8
  %67 = getelementptr inbounds nuw %struct.nghttp2_push_promise, ptr %66, i32 0, i32 1
  store i64 0, ptr %67, align 8, !tbaa !32
  %68 = load ptr, ptr %5, align 8, !tbaa !8
  %69 = call i64 @nghttp2_bufs_len(ptr noundef %68)
  %70 = load ptr, ptr %6, align 8, !tbaa !8
  %71 = getelementptr inbounds nuw %struct.nghttp2_push_promise, ptr %70, i32 0, i32 0
  %72 = getelementptr inbounds nuw %struct.nghttp2_frame_hd, ptr %71, i32 0, i32 0
  store i64 %69, ptr %72, align 8, !tbaa !97
  %73 = load ptr, ptr %5, align 8, !tbaa !8
  %74 = load ptr, ptr %6, align 8, !tbaa !8
  %75 = getelementptr inbounds nuw %struct.nghttp2_push_promise, ptr %74, i32 0, i32 0
  %76 = call i32 @frame_pack_headers_shared(ptr noundef %73, ptr noundef %75)
  store i32 %76, ptr %4, align 4
  store i32 1, ptr %11, align 4
  br label %77

77:                                               ; preds = %59, %57
  call void @llvm.lifetime.end.p0(i64 8, ptr %10) #7
  call void @llvm.lifetime.end.p0(i64 4, ptr %9) #7
  call void @llvm.lifetime.end.p0(i64 8, ptr %8) #7
  %78 = load i32, ptr %4, align 4
  ret i32 %78
}