; Function Attrs: nounwind uwtable
define hidden i32 @nghttp2_frame_pack_push_promise(ptr noundef %0, ptr noundef captures(none) %1, ptr noundef %2) local_unnamed_addr #0 {
  %4 = load ptr, ptr %0, align 8, !tbaa !65
  %5 = getelementptr inbounds nuw i8, ptr %0, i64 8
  %6 = load ptr, ptr %5, align 8, !tbaa !68
  %7 = icmp eq ptr %4, %6
  br i1 %7, label %9, label %8

8:                                                ; preds = %3
  tail call void @__assert_fail(ptr noundef nonnull @.str, ptr noundef nonnull @.str.1, i32 noundef 561, ptr noundef nonnull @__PRETTY_FUNCTION__.nghttp2_frame_pack_push_promise) #19
  unreachable

9:                                                ; preds = %3
  %10 = getelementptr inbounds nuw i8, ptr %6, i64 24
  %11 = load ptr, ptr %10, align 8, !tbaa !69
  %12 = getelementptr inbounds nuw i8, ptr %11, i64 4
  store ptr %12, ptr %10, align 8, !tbaa !69
  %13 = getelementptr inbounds nuw i8, ptr %6, i64 32
  store ptr %12, ptr %13, align 8, !tbaa !71
  %14 = getelementptr inbounds nuw i8, ptr %1, i64 24
  %15 = load ptr, ptr %14, align 8, !tbaa !30
  %16 = getelementptr inbounds nuw i8, ptr %1, i64 32
  %17 = load i64, ptr %16, align 8, !tbaa !31
  %18 = tail call i32 @nghttp2_hd_deflate_hd_bufs(ptr noundef %2, ptr noundef nonnull %0, ptr noundef %15, i64 noundef %17) #18
  %19 = icmp eq i32 %18, -502
  %spec.store.select = select i1 %19, i32 -523, i32 %18
  %20 = load ptr, ptr %10, align 8, !tbaa !69
  %21 = getelementptr inbounds i8, ptr %20, i64 -4
  store ptr %21, ptr %10, align 8, !tbaa !69
  %.not = icmp eq i32 %spec.store.select, 0
  br i1 %.not, label %22, label %27

22:                                               ; preds = %9
  %23 = getelementptr inbounds nuw i8, ptr %1, i64 40
  %24 = load i32, ptr %23, align 8, !tbaa !32
  tail call void @nghttp2_put_uint32be(ptr noundef nonnull %21, i32 noundef %24) #18
  %25 = getelementptr inbounds nuw i8, ptr %1, i64 16
  store i64 0, ptr %25, align 8, !tbaa !28
  %26 = tail call i64 @nghttp2_bufs_len(ptr noundef nonnull %0) #18
  store i64 %26, ptr %1, align 8, !tbaa !88
  tail call fastcc void @frame_pack_headers_shared(ptr noundef nonnull %0, ptr noundef nonnull %1)
  br label %27

27:                                               ; preds = %9, %22
  ret i32 %spec.store.select
}